target datalayout = "e-m:e-p270:32:32-p271:32:32-p272:64:64-i64:64-i128:128-f80:128-n8:16:32:64-S128"
target triple = "x86_64-pc-linux-gnu"

%struct.BEValue = type { i8, i32, ptr, ptr, ptr }
%struct.GenContext_ = type { i8, ptr, ptr, ptr, ptr, ptr, ptr, ptr, ptr, ptr, ptr, ptr, ptr, ptr, ptr, ptr, ptr, ptr, ptr, ptr, ptr, ptr, ptr, ptr, ptr, ptr, ptr, ptr, ptr, ptr, ptr, ptr, ptr, %struct.anon.85, i32, i32, %struct.DebugContext, ptr, ptr, ptr, %struct.BEValue, i8, %union.SourceSpan, ptr, ptr, ptr, ptr }
%struct.anon.85 = type { ptr, ptr, ptr }
%struct.DebugContext = type { i16, ptr, ptr, %struct.DebugFile_, ptr, ptr, ptr, ptr }
%struct.DebugFile_ = type { i16, ptr }
%union.SourceSpan = type { i64 }

@.str.3 = private unnamed_addr constant [12 x i8] c"after_check\00", align 1
@.str.4 = private unnamed_addr constant [16 x i8] c"assign_optional\00", align 1
@type_anyfault = external global ptr, align 8

; Function Attrs: nounwind uwtable
define dso_local void @llvm_emit_jump_to_optional_exit(ptr noundef %0, ptr noundef %1) #0 {
  %3 = alloca i32, align 4
  %4 = alloca ptr, align 8
  %5 = alloca ptr, align 8
  %6 = alloca ptr, align 8
  %7 = alloca ptr, align 8
  %8 = alloca ptr, align 8
  %9 = alloca ptr, align 8
  %10 = alloca ptr, align 8
  %11 = alloca ptr, align 8
  %12 = alloca ptr, align 8
  %13 = alloca ptr, align 8
  %14 = alloca i8, align 1
  %15 = alloca ptr, align 8
  %16 = alloca ptr, align 8
  %17 = alloca ptr, align 8
  store ptr %0, ptr %12, align 8
  store ptr %1, ptr %13, align 8
  %18 = load ptr, ptr %13, align 8
  store ptr %18, ptr %11, align 8
  %19 = load ptr, ptr %11, align 8
  %20 = call i32 @LLVMIsConstant(ptr noundef %19) #3
  %21 = icmp ne i32 %20, 0
  %22 = zext i1 %21 to i8
  store i8 %22, ptr %14, align 1
  %23 = load i8, ptr %14, align 1
  %24 = trunc i8 %23 to i1
  br i1 %24, label %25, label %31

25:                                               ; preds = %2
  %26 = load ptr, ptr %13, align 8
  store ptr %26, ptr %10, align 8
  %27 = load ptr, ptr %10, align 8
  %28 = call i32 @LLVMIsNull(ptr noundef %27) #3
  %29 = icmp ne i32 %28, 0
  br i1 %29, label %30, label %31

30:                                               ; preds = %25
  br label %107

31:                                               ; preds = %25, %2
  %32 = load ptr, ptr %12, align 8
  %33 = call ptr @llvm_basic_block_new(ptr noundef %32, ptr noundef @.str.3)
  store ptr %33, ptr %15, align 8
  %34 = load ptr, ptr %12, align 8
  %35 = getelementptr inbounds %struct.GenContext_, ptr %34, i32 0, i32 19
  %36 = load ptr, ptr %35, align 8
  %37 = icmp ne ptr %36, null
  br i1 %37, label %58, label %38

38:                                               ; preds = %31
  %39 = load i8, ptr %14, align 1
  %40 = trunc i8 %39 to i1
  br i1 %40, label %41, label %46

41:                                               ; preds = %38
  %42 = load ptr, ptr %12, align 8
  %43 = load ptr, ptr %12, align 8
  %44 = getelementptr inbounds %struct.GenContext_, ptr %43, i32 0, i32 11
  %45 = load ptr, ptr %44, align 8
  call void @llvm_emit_br(ptr noundef %42, ptr noundef %45)
  br label %55

46:                                               ; preds = %38
  %47 = load ptr, ptr %12, align 8
  %48 = load ptr, ptr %12, align 8
  %49 = load ptr, ptr %13, align 8
  %50 = call ptr @llvm_emit_is_no_opt(ptr noundef %48, ptr noundef %49)
  %51 = load ptr, ptr %15, align 8
  %52 = load ptr, ptr %12, align 8
  %53 = getelementptr inbounds %struct.GenContext_, ptr %52, i32 0, i32 11
  %54 = load ptr, ptr %53, align 8
  call void @llvm_emit_cond_br_raw(ptr noundef %47, ptr noundef %50, ptr noundef %51, ptr noundef %54)
  br label %55

55:                                               ; preds = %46, %41
  %56 = load ptr, ptr %12, align 8
  %57 = load ptr, ptr %15, align 8
  call void @llvm_emit_block(ptr noundef %56, ptr noundef %57)
  br label %107

58:                                               ; preds = %31
  %59 = load i8, ptr %14, align 1
  %60 = trunc i8 %59 to i1
  br i1 %60, label %73, label %61

61:                                               ; preds = %58
  %62 = load ptr, ptr %12, align 8
  %63 = load ptr, ptr %13, align 8
  %64 = call ptr @llvm_emit_is_no_opt(ptr noundef %62, ptr noundef %63)
  store ptr %64, ptr %16, align 8
  %65 = load ptr, ptr %12, align 8
  %66 = call ptr @llvm_basic_block_new(ptr noundef %65, ptr noundef @.str.4)
  store ptr %66, ptr %17, align 8
  %67 = load ptr, ptr %12, align 8
  %68 = load ptr, ptr %16, align 8
  %69 = load ptr, ptr %15, align 8
  %70 = load ptr, ptr %17, align 8
  call void @llvm_emit_cond_br_raw(ptr noundef %67, ptr noundef %68, ptr noundef %69, ptr noundef %70)
  %71 = load ptr, ptr %12, align 8
  %72 = load ptr, ptr %17, align 8
  call void @llvm_emit_block(ptr noundef %71, ptr noundef %72)
  br label %73

73:                                               ; preds = %61, %58
  %74 = load ptr, ptr %12, align 8
  %75 = load ptr, ptr %12, align 8
  %76 = getelementptr inbounds %struct.GenContext_, ptr %75, i32 0, i32 19
  %77 = load ptr, ptr %76, align 8
  %78 = load ptr, ptr %13, align 8
  %79 = load ptr, ptr @type_anyfault, align 8
  store ptr %74, ptr %6, align 8
  store ptr %77, ptr %7, align 8
  store ptr %78, ptr %8, align 8
  store ptr %79, ptr %9, align 8
  %80 = load ptr, ptr %6, align 8
  %81 = load ptr, ptr %7, align 8
  %82 = load ptr, ptr %8, align 8
  %83 = load ptr, ptr %7, align 8
  %84 = load ptr, ptr %9, align 8
  store ptr %83, ptr %4, align 8
  store ptr %84, ptr %5, align 8
  %85 = load ptr, ptr %4, align 8
  %86 = call ptr @LLVMIsAAllocaInst(ptr noundef %85) #3
  %87 = icmp ne ptr %86, null
  br i1 %87, label %92, label %88

88:                                               ; preds = %73
  %89 = load ptr, ptr %4, align 8
  %90 = call ptr @LLVMIsAGlobalVariable(ptr noundef %89) #3
  %91 = icmp ne ptr %90, null
  br i1 %91, label %92, label %95

92:                                               ; preds = %88, %73
  %93 = load ptr, ptr %4, align 8
  %94 = call i32 @LLVMGetAlignment(ptr noundef %93) #3
  store i32 %94, ptr %3, align 4
  br label %98

95:                                               ; preds = %88
  %96 = load ptr, ptr %5, align 8
  %97 = call i32 @type_abi_alignment(ptr noundef %96) #3
  store i32 %97, ptr %3, align 4
  br label %98

98:                                               ; preds = %95, %92
  %99 = load i32, ptr %3, align 4
  %100 = call ptr @llvm_store_to_ptr_raw_aligned(ptr noundef %80, ptr noundef %81, ptr noundef %82, i32 noundef %99) #3
  %101 = load ptr, ptr %12, align 8
  %102 = load ptr, ptr %12, align 8
  %103 = getelementptr inbounds %struct.GenContext_, ptr %102, i32 0, i32 11
  %104 = load ptr, ptr %103, align 8
  call void @llvm_emit_br(ptr noundef %101, ptr noundef %104)
  %105 = load ptr, ptr %12, align 8
  %106 = load ptr, ptr %15, align 8
  call void @llvm_emit_block(ptr noundef %105, ptr noundef %106)
  br label %107

107:                                              ; preds = %98, %55, %30
  ret void
}