; Function Attrs: nounwind uwtable
define dso_local void @llvm_emit_jump_to_optional_exit(ptr noundef %0, ptr noundef %1) local_unnamed_addr #0 {
  %3 = tail call i32 @LLVMIsConstant(ptr noundef %1) #3
  %.not = icmp eq i32 %3, 0
  br i1 %.not, label %6, label %4

4:                                                ; preds = %2
  %5 = tail call i32 @LLVMIsNull(ptr noundef %1) #3
  %.not43 = icmp eq i32 %5, 0
  br i1 %.not43, label %.thread, label %36

6:                                                ; preds = %2
  %7 = tail call ptr @llvm_basic_block_new(ptr noundef %0, ptr noundef nonnull @.str.3) #3
  %8 = getelementptr inbounds nuw i8, ptr %0, i64 152
  %9 = load ptr, ptr %8, align 8
  %.not44 = icmp eq ptr %9, null
  %10 = tail call ptr @llvm_emit_is_no_opt(ptr noundef nonnull %0, ptr noundef %1) #3
  br i1 %.not44, label %17, label %20

.thread:                                          ; preds = %4
  %11 = tail call ptr @llvm_basic_block_new(ptr noundef %0, ptr noundef nonnull @.str.3) #3
  %12 = getelementptr inbounds nuw i8, ptr %0, i64 152
  %13 = load ptr, ptr %12, align 8
  %.not4447 = icmp eq ptr %13, null
  br i1 %.not4447, label %14, label %.thread49

14:                                               ; preds = %.thread
  %15 = getelementptr inbounds nuw i8, ptr %0, i64 88
  %16 = load ptr, ptr %15, align 8
  tail call void @llvm_emit_br(ptr noundef nonnull %0, ptr noundef %16) #3
  br label %.sink.split

17:                                               ; preds = %6
  %18 = getelementptr inbounds nuw i8, ptr %0, i64 88
  %19 = load ptr, ptr %18, align 8
  tail call void @llvm_emit_cond_br_raw(ptr noundef nonnull %0, ptr noundef %10, ptr noundef %7, ptr noundef %19) #3
  br label %.sink.split

20:                                               ; preds = %6
  %21 = tail call ptr @llvm_basic_block_new(ptr noundef nonnull %0, ptr noundef nonnull @.str.4) #3
  tail call void @llvm_emit_cond_br_raw(ptr noundef nonnull %0, ptr noundef %10, ptr noundef %7, ptr noundef %21) #3
  tail call void @llvm_emit_block(ptr noundef nonnull %0, ptr noundef %21) #3
  %.pre = load ptr, ptr %8, align 8
  br label %.thread49

.thread49:                                        ; preds = %.thread, %20
  %22 = phi ptr [ %.pre, %20 ], [ %13, %.thread ]
  %23 = phi ptr [ %7, %20 ], [ %11, %.thread ]
  %24 = load ptr, ptr @type_anyfault, align 8
  %25 = tail call ptr @LLVMIsAAllocaInst(ptr noundef %22) #3
  %.not45 = icmp eq ptr %25, null
  br i1 %.not45, label %26, label %28

26:                                               ; preds = %.thread49
  %27 = tail call ptr @LLVMIsAGlobalVariable(ptr noundef %22) #3
  %.not46 = icmp eq ptr %27, null
  br i1 %.not46, label %30, label %28

28:                                               ; preds = %26, %.thread49
  %29 = tail call i32 @LLVMGetAlignment(ptr noundef %22) #3
  br label %32

30:                                               ; preds = %26
  %31 = tail call i32 @type_abi_alignment(ptr noundef %24) #3
  br label %32

32:                                               ; preds = %30, %28
  %.0 = phi i32 [ %29, %28 ], [ %31, %30 ]
  %33 = tail call ptr @llvm_store_to_ptr_raw_aligned(ptr noundef nonnull %0, ptr noundef %22, ptr noundef %1, i32 noundef %.0) #3
  %34 = getelementptr inbounds nuw i8, ptr %0, i64 88
  %35 = load ptr, ptr %34, align 8
  tail call void @llvm_emit_br(ptr noundef nonnull %0, ptr noundef %35) #3
  br label %.sink.split

.sink.split:                                      ; preds = %14, %17, %32
  %.sink = phi ptr [ %23, %32 ], [ %7, %17 ], [ %11, %14 ]
  tail call void @llvm_emit_block(ptr noundef nonnull %0, ptr noundef %.sink) #3
  br label %36

36:                                               ; preds = %.sink.split, %4
  ret void
}